target datalayout = "e-m:e-p270:32:32-p271:32:32-p272:64:64-i64:64-i128:128-f80:128-n8:16:32:64-S128"
target triple = "x86_64-pc-linux-gnu"

%struct.AV1Decoder = type { %struct.DecoderCodingBlock, %struct.AV1Common, %struct.AVxWorker, %struct.AV1LfSyncData, %struct.AV1LrSyncData, %struct.AV1LrStruct, ptr, i32, ptr, [16 x i8], %struct.ThreadData, ptr, i32, [64 x [64 x %struct.TileBufferDec]], %struct.AV1DecTileMTData, i32, [4 x ptr], i64, i32, i32, i32, i32, i32, i32, i32, i32, i32, i32, i32, i32, i32, i32, i32, i32, i32, i64, %struct.DataBuffer, i32, i32, i32, i32, i32, i32, %struct.EXTERNAL_REFERENCES, %struct.yv12_buffer_config, ptr, i32, i32, ptr, ptr, %struct.AV1DecRowMTInfo, ptr, i32, i32, i32, i32, [8 x i32], i32, i32, i32, %struct.aom_s_frame_info, [28 x i8] }
%struct.DecoderCodingBlock = type { %struct.macroblockd, i32, [2 x ptr], [3 x ptr], [3 x i16], [3 x ptr], [3 x i16], [29 x i8], [29 x i8] }
%struct.macroblockd = type { i32, i32, i32, i8, [3 x %struct.macroblockd_plane], %struct.TileInfo, ptr, i8, i8, i8, i8, ptr, ptr, ptr, ptr, ptr, i32, i32, i32, i32, i32, [2 x ptr], ptr, [3 x ptr], [3 x [32 x i8]], ptr, [32 x i8], ptr, ptr, [32 x i8], [3 x %struct.WienerInfo], [3 x %struct.SgrprojInfo], i8, i8, [29 x [8 x %struct.candidate_mv]], [29 x [8 x i16]], i8, i8, [8 x i8], ptr, i32, [8 x i32], [8 x i32], i32, i32, ptr, ptr, i8, [4 x i8], [4 x i8], [7 x i8], [32768 x i8], %struct.cfl_ctx, [2 x i16], ptr, [2 x ptr] }
%struct.macroblockd_plane = type { i8, i32, i32, %struct.buf_2d, [2 x %struct.buf_2d], ptr, ptr, [8 x [2 x i16]], ptr, i8, i8, [8 x [19 x ptr]], [8 x [19 x ptr]] }
%struct.buf_2d = type { ptr, ptr, i32, i32, i32 }
%struct.TileInfo = type { i32, i32, i32, i32, i32, i32 }
%struct.WienerInfo = type { [8 x i16], [8 x i16] }
%struct.SgrprojInfo = type { i32, [2 x i32] }
%struct.candidate_mv = type { %union.int_mv, %union.int_mv }
%union.int_mv = type { i32 }
%struct.cfl_ctx = type { [1024 x i16], [1024 x i16], [2 x i32], i32, [2 x [32 x i16]], i32, i32, i32, i32, i32, i32 }
%struct.AV1Common = type { %struct.CurrentFrame, %struct.aom_internal_error_info, i32, i32, i32, i32, i32, i32, i8, i8, [33 x i32], i32, ptr, ptr, [8 x i32], %struct.scale_factors, [8 x %struct.scale_factors], [8 x ptr], i32, i32, i32, %struct.FeatureFlags, %struct.CommonModeInfoParams, %struct.CommonQuantParams, %struct.segmentation, ptr, [8 x i8], %struct.loop_filter_info_n, %struct.loopfilter, [3 x %struct.RestorationInfo], ptr, ptr, %struct.yv12_buffer_config, %struct.CdefInfo, %struct.aom_film_grain_t, %struct.DeltaQInfo, [8 x %struct.WarpedMotionParams], %struct.SequenceHeader, ptr, ptr, %struct.CommonTileParams, ptr, %struct.CommonContexts, i32, [8 x i32], ptr, i32, [8 x i32], [8 x i8], i32, i32, i32, i32 }
%struct.CurrentFrame = type { i8, i8, i32, i32, i32, %struct.SkipModeInfo, i32, i32 }
%struct.SkipModeInfo = type { i32, i32, i32, i32 }
%struct.aom_internal_error_info = type { i32, i32, [200 x i8], i32, [1 x %struct.__jmp_buf_tag] }
%struct.__jmp_buf_tag = type { [8 x i64], i32, %struct.__sigset_t }
%struct.__sigset_t = type { [16 x i64] }
%struct.scale_factors = type { i32, i32, i32, i32, ptr, ptr }
%struct.FeatureFlags = type { i8, i8, i8, i8, i8, i8, i8, i8, i8, i8, i8, i8, i8, i8, i32, i32, i8 }
%struct.CommonModeInfoParams = type { i32, i32, i32, i32, i32, ptr, i32, i32, i8, ptr, i32, i32, ptr, ptr, ptr, ptr }
%struct.CommonQuantParams = type { i32, i32, i32, i32, i32, i32, [8 x [2 x i16]], [8 x [2 x i16]], [8 x [2 x i16]], [16 x [3 x [19 x ptr]]], [16 x [3 x [19 x ptr]]], [8 x [19 x ptr]], [8 x [19 x ptr]], [8 x [19 x ptr]], i8, i32, i32, i32 }
%struct.segmentation = type { i8, i8, i8, i8, [8 x [8 x i16]], [8 x i32], i32, i8 }
%struct.loop_filter_info_n = type { [64 x %struct.loop_filter_thresh], [3 x [8 x [2 x [8 x [2 x i8]]]]] }
%struct.loop_filter_thresh = type { [16 x i8], [16 x i8], [16 x i8] }
%struct.loopfilter = type { [2 x i32], i32, i32, i32, i8, i8, [8 x i8], [2 x i8], i32 }
%struct.RestorationInfo = type { i32, i32, i32, i32, i32, ptr, %struct.RestorationStripeBoundaries, i32 }
%struct.RestorationStripeBoundaries = type { ptr, ptr, i32, i32 }
%struct.CdefInfo = type { i32, i32, [16 x i32], [16 x i32], i32 }
%struct.aom_film_grain_t = type { i32, i32, [14 x [2 x i32]], i32, [10 x [2 x i32]], i32, [10 x [2 x i32]], i32, i32, i32, [24 x i32], [25 x i32], [25 x i32], i32, i32, i32, i32, i32, i32, i32, i32, i32, i32, i32, i32, i16 }
%struct.DeltaQInfo = type { i32, i32, i32, i32, i32 }
%struct.WarpedMotionParams = type { [8 x i32], i16, i16, i16, i16, i8, i8 }
%struct.SequenceHeader = type { i32, i32, i32, i32, i8, i32, i32, i8, i32, i32, %struct.OrderHintInfo, i8, i8, i8, i8, i8, i8, i8, i8, i8, i8, i8, i8, i8, i8, i32, i8, i8, i32, i32, i32, i32, i32, i32, i32, i8, i8, i32, [32 x i32], i32, %struct.aom_timing, i8, %struct.aom_dec_model_info, i8, [32 x i8], [32 x i8], [33 x %struct.aom_dec_model_op_parameters] }
%struct.OrderHintInfo = type { i32, i32, i32, i32 }
%struct.aom_timing = type { i32, i32, i32, i32 }
%struct.aom_dec_model_info = type { i32, i32, i32, i32 }
%struct.aom_dec_model_op_parameters = type { i32, i64, i64, i32, i32, i32, i32, i32 }
%struct.CommonTileParams = type { i32, i32, i32, i32, i32, i32, i32, i32, i32, i32, i32, i32, i32, i32, i32, [65 x i32], [65 x i32], i32, i32 }
%struct.CommonContexts = type { ptr, [3 x ptr], ptr, i32, i32, i32 }
%struct.AVxWorker = type { ptr, i32, ptr, ptr, ptr, ptr, i32 }
%struct.AV1LfSyncData = type { [3 x ptr], [3 x ptr], [3 x ptr], i32, i32, ptr, i32, ptr, ptr, i32, i32 }
%struct.AV1LrSyncData = type { [3 x ptr], [3 x ptr], [3 x ptr], i32, i32, i32, i32, ptr, ptr, ptr, i32, i32 }
%struct.AV1LrStruct = type { ptr, [3 x %struct.FilterFrameCtxt], ptr, ptr }
%struct.FilterFrameCtxt = type { ptr, i32, i32, i32, i32, i32, ptr, ptr, i32, i32, %struct.AV1PixelRect }
%struct.AV1PixelRect = type { i32, i32, i32, i32 }
%struct.ThreadData = type { %struct.DecoderCodingBlock, %struct.CB_BUFFER, ptr, [2 x ptr], i32, i32, ptr, [2 x ptr], ptr, ptr, ptr, ptr, ptr, ptr, [24 x i8] }
%struct.CB_BUFFER = type { [3 x [16384 x i32]], [3 x [1024 x %struct.eob_info]], [2 x [16384 x i8]] }
%struct.eob_info = type { i16, i16 }
%struct.TileBufferDec = type { ptr, i64 }
%struct.AV1DecTileMTData = type { ptr, ptr, i32, i32, i32, i32 }
%struct.DataBuffer = type { ptr, i64 }
%struct.EXTERNAL_REFERENCES = type { [128 x %struct.yv12_buffer_config], i32 }
%struct.yv12_buffer_config = type { %union.anon, %union.anon.0, %union.anon.2, %union.anon.4, %union.anon.6, %union.anon.8, i32, [3 x ptr], ptr, i32, ptr, i64, i32, i64, i32, i32, i32, i32, i32, i32, i8, i32, i32, i32, i32, i32, i32, ptr }
%union.anon = type { %struct.anon }
%struct.anon = type { i32, i32 }
%union.anon.0 = type { %struct.anon.1 }
%struct.anon.1 = type { i32, i32 }
%union.anon.2 = type { %struct.anon.3 }
%struct.anon.3 = type { i32, i32 }
%union.anon.4 = type { %struct.anon.5 }
%struct.anon.5 = type { i32, i32 }
%union.anon.6 = type { %struct.anon.7 }
%struct.anon.7 = type { i32, i32 }
%union.anon.8 = type { %struct.anon.9 }
%struct.anon.9 = type { ptr, ptr, ptr }
%struct.AV1DecRowMTInfo = type { i32, i32, i32, i32, i32, i32, i32, i32, i32, i32 }
%struct.aom_s_frame_info = type { i32, i32 }
%struct.aom_metadata_array = type { i64, ptr }

@.str.11 = private unnamed_addr constant [34 x i8] c"Failed to allocate metadata array\00", align 1
@.str.12 = private unnamed_addr constant [26 x i8] c"Error allocating metadata\00", align 1
@.str.13 = private unnamed_addr constant [29 x i8] c"Error growing metadata array\00", align 1

; Function Attrs: nounwind uwtable
define internal void @alloc_read_metadata(ptr noundef %0, i32 noundef %1, ptr noundef %2, i64 noundef %3, i32 noundef %4) #0 {
  %6 = alloca ptr, align 8
  %7 = alloca i32, align 4
  %8 = alloca ptr, align 8
  %9 = alloca i64, align 8
  %10 = alloca i32, align 4
  %11 = alloca ptr, align 8
  %12 = alloca ptr, align 8
  %13 = alloca ptr, align 8
  store ptr %0, ptr %6, align 8
  store i32 %1, ptr %7, align 4
  store ptr %2, ptr %8, align 8
  store i64 %3, ptr %9, align 8
  store i32 %4, ptr %10, align 4
  %14 = load ptr, ptr %6, align 8
  %15 = getelementptr inbounds nuw %struct.AV1Decoder, ptr %14, i32 0, i32 1
  store ptr %15, ptr %11, align 8
  %16 = load ptr, ptr %6, align 8
  %17 = getelementptr inbounds nuw %struct.AV1Decoder, ptr %16, i32 0, i32 51
  %18 = load ptr, ptr %17, align 8
  %19 = icmp ne ptr %18, null
  br i1 %19, label %32, label %20

20:                                               ; preds = %5
  %21 = call ptr @aom_img_metadata_array_alloc(i64 noundef 0)
  %22 = load ptr, ptr %6, align 8
  %23 = getelementptr inbounds nuw %struct.AV1Decoder, ptr %22, i32 0, i32 51
  store ptr %21, ptr %23, align 8
  %24 = load ptr, ptr %6, align 8
  %25 = getelementptr inbounds nuw %struct.AV1Decoder, ptr %24, i32 0, i32 51
  %26 = load ptr, ptr %25, align 8
  %27 = icmp ne ptr %26, null
  br i1 %27, label %31, label %28

28:                                               ; preds = %20
  %29 = load ptr, ptr %11, align 8
  %30 = getelementptr inbounds nuw %struct.AV1Common, ptr %29, i32 0, i32 1
  call void (ptr, i32, ptr, ...) @aom_internal_error(ptr noundef %30, i32 noundef 2, ptr noundef @.str.11)
  br label %31

31:                                               ; preds = %28, %20
  br label %32

32:                                               ; preds = %31, %5
  %33 = load i32, ptr %7, align 4
  %34 = load ptr, ptr %8, align 8
  %35 = load i64, ptr %9, align 8
  %36 = load i32, ptr %10, align 4
  %37 = call ptr @aom_img_metadata_alloc(i32 noundef %33, ptr noundef %34, i64 noundef %35, i32 noundef %36)
  store ptr %37, ptr %12, align 8
  %38 = load ptr, ptr %12, align 8
  %39 = icmp ne ptr %38, null
  br i1 %39, label %43, label %40

40:                                               ; preds = %32
  %41 = load ptr, ptr %11, align 8
  %42 = getelementptr inbounds nuw %struct.AV1Common, ptr %41, i32 0, i32 1
  call void (ptr, i32, ptr, ...) @aom_internal_error(ptr noundef %42, i32 noundef 2, ptr noundef @.str.12)
  br label %43

43:                                               ; preds = %40, %32
  %44 = load ptr, ptr %6, align 8
  %45 = getelementptr inbounds nuw %struct.AV1Decoder, ptr %44, i32 0, i32 51
  %46 = load ptr, ptr %45, align 8
  %47 = getelementptr inbounds nuw %struct.aom_metadata_array, ptr %46, i32 0, i32 1
  %48 = load ptr, ptr %47, align 8
  %49 = load ptr, ptr %6, align 8
  %50 = getelementptr inbounds nuw %struct.AV1Decoder, ptr %49, i32 0, i32 51
  %51 = load ptr, ptr %50, align 8
  %52 = getelementptr inbounds nuw %struct.aom_metadata_array, ptr %51, i32 0, i32 0
  %53 = load i64, ptr %52, align 8
  %54 = add i64 %53, 1
  %55 = mul i64 %54, 8
  %56 = call ptr @realloc(ptr noundef %48, i64 noundef %55) #7
  store ptr %56, ptr %13, align 8
  %57 = load ptr, ptr %13, align 8
  %58 = icmp ne ptr %57, null
  br i1 %58, label %63, label %59

59:                                               ; preds = %43
  %60 = load ptr, ptr %12, align 8
  call void @aom_img_metadata_free(ptr noundef %60)
  %61 = load ptr, ptr %11, align 8
  %62 = getelementptr inbounds nuw %struct.AV1Common, ptr %61, i32 0, i32 1
  call void (ptr, i32, ptr, ...) @aom_internal_error(ptr noundef %62, i32 noundef 2, ptr noundef @.str.13)
  br label %63

63:                                               ; preds = %59, %43
  %64 = load ptr, ptr %13, align 8
  %65 = load ptr, ptr %6, align 8
  %66 = getelementptr inbounds nuw %struct.AV1Decoder, ptr %65, i32 0, i32 51
  %67 = load ptr, ptr %66, align 8
  %68 = getelementptr inbounds nuw %struct.aom_metadata_array, ptr %67, i32 0, i32 1
  store ptr %64, ptr %68, align 8
  %69 = load ptr, ptr %12, align 8
  %70 = load ptr, ptr %6, align 8
  %71 = getelementptr inbounds nuw %struct.AV1Decoder, ptr %70, i32 0, i32 51
  %72 = load ptr, ptr %71, align 8
  %73 = getelementptr inbounds nuw %struct.aom_metadata_array, ptr %72, i32 0, i32 1
  %74 = load ptr, ptr %73, align 8
  %75 = load ptr, ptr %6, align 8
  %76 = getelementptr inbounds nuw %struct.AV1Decoder, ptr %75, i32 0, i32 51
  %77 = load ptr, ptr %76, align 8
  %78 = getelementptr inbounds nuw %struct.aom_metadata_array, ptr %77, i32 0, i32 0
  %79 = load i64, ptr %78, align 8
  %80 = getelementptr inbounds ptr, ptr %74, i64 %79
  store ptr %69, ptr %80, align 8
  %81 = load ptr, ptr %6, align 8
  %82 = getelementptr inbounds nuw %struct.AV1Decoder, ptr %81, i32 0, i32 51
  %83 = load ptr, ptr %82, align 8
  %84 = getelementptr inbounds nuw %struct.aom_metadata_array, ptr %83, i32 0, i32 0
  %85 = load i64, ptr %84, align 8
  %86 = add i64 %85, 1
  store i64 %86, ptr %84, align 8
  ret void
}