; Function Attrs: nounwind uwtable
define internal fastcc void @alloc_read_metadata(ptr noundef %0, i32 noundef range(i32 1, 5) %1, ptr noundef %2, i64 noundef range(i64 -2147483648, 2147483647) %3) unnamed_addr #1 {
  %5 = getelementptr inbounds nuw i8, ptr %0, i64 458872
  %6 = load ptr, ptr %5, align 8
  %.not = icmp eq ptr %6, null
  br i1 %.not, label %7, label %11

7:                                                ; preds = %4
  %8 = tail call ptr @aom_img_metadata_array_alloc(i64 noundef 0) #9
  store ptr %8, ptr %5, align 8
  %.not21 = icmp eq ptr %8, null
  br i1 %.not21, label %9, label %11

9:                                                ; preds = %7
  %10 = getelementptr inbounds nuw i8, ptr %0, i64 48008
  tail call void (ptr, i32, ptr, ...) @aom_internal_error(ptr noundef nonnull %10, i32 noundef 2, ptr noundef nonnull @.str.11) #9
  br label %11

11:                                               ; preds = %7, %9, %4
  %12 = tail call ptr @aom_img_metadata_alloc(i32 noundef %1, ptr noundef %2, i64 noundef %3, i32 noundef 2) #9
  %.not22 = icmp eq ptr %12, null
  br i1 %.not22, label %13, label %15

13:                                               ; preds = %11
  %14 = getelementptr inbounds nuw i8, ptr %0, i64 48008
  tail call void (ptr, i32, ptr, ...) @aom_internal_error(ptr noundef nonnull %14, i32 noundef 2, ptr noundef nonnull @.str.12) #9
  br label %15

15:                                               ; preds = %13, %11
  %16 = load ptr, ptr %5, align 8
  %17 = getelementptr inbounds nuw i8, ptr %16, i64 8
  %18 = load ptr, ptr %17, align 8
  %19 = load i64, ptr %16, align 8
  %20 = shl i64 %19, 3
  %21 = add i64 %20, 8
  %22 = tail call ptr @realloc(ptr noundef %18, i64 noundef %21) #10
  %.not23 = icmp eq ptr %22, null
  br i1 %.not23, label %23, label %25

23:                                               ; preds = %15
  tail call void @aom_img_metadata_free(ptr noundef %12) #9
  %24 = getelementptr inbounds nuw i8, ptr %0, i64 48008
  tail call void (ptr, i32, ptr, ...) @aom_internal_error(ptr noundef nonnull %24, i32 noundef 2, ptr noundef nonnull @.str.13) #9
  br label %25

25:                                               ; preds = %23, %15
  %26 = load ptr, ptr %5, align 8
  %27 = getelementptr inbounds nuw i8, ptr %26, i64 8
  store ptr %22, ptr %27, align 8
  %28 = load ptr, ptr %5, align 8
  %29 = getelementptr inbounds nuw i8, ptr %28, i64 8
  %30 = load ptr, ptr %29, align 8
  %31 = load i64, ptr %28, align 8
  %32 = getelementptr inbounds ptr, ptr %30, i64 %31
  store ptr %12, ptr %32, align 8
  %33 = load ptr, ptr %5, align 8
  %34 = load i64, ptr %33, align 8
  %35 = add i64 %34, 1
  store i64 %35, ptr %33, align 8
  ret void
}